; Function Attrs: nounwind uwtable
define internal ptr @unicode_asutf8andsize_null(ptr readnone captures(none) %0, ptr noundef %1) #0 {
  %3 = alloca ptr, align 8
  %4 = alloca i64, align 8
  call void @llvm.lifetime.start.p0(i64 8, ptr nonnull %3) #4
  call void @llvm.lifetime.start.p0(i64 8, ptr nonnull %4) #4
  %5 = call i32 (ptr, ptr, ...) @PyArg_ParseTuple(ptr noundef %1, ptr noundef nonnull @.str.358, ptr noundef nonnull %3, ptr noundef nonnull %4) #4
  %.not = icmp eq i32 %5, 0
  br i1 %.not, label %18, label %6

6:                                                ; preds = %2
  %7 = load ptr, ptr %3, align 8, !tbaa !8
  %8 = call ptr @Py_GetConstantBorrowed(i32 noundef 0) #4
  %9 = icmp eq ptr %7, %8
  br i1 %9, label %10, label %._crit_edge

._crit_edge:                                      ; preds = %6
  %.pre = load ptr, ptr %3, align 8, !tbaa !8
  br label %11

10:                                               ; preds = %6
  store ptr null, ptr %3, align 8, !tbaa !8
  br label %11

11:                                               ; preds = %._crit_edge, %10
  %12 = phi ptr [ %.pre, %._crit_edge ], [ null, %10 ]
  %13 = call ptr @PyUnicode_AsUTF8AndSize(ptr noundef %12, ptr noundef null) #4
  %14 = icmp eq ptr %13, null
  br i1 %14, label %18, label %15

15:                                               ; preds = %11
  %16 = load i64, ptr %4, align 8, !tbaa !10
  %17 = call ptr @PyBytes_FromStringAndSize(ptr noundef nonnull %13, i64 noundef %16) #4
  br label %18

18:                                               ; preds = %11, %2, %15
  %.0 = phi ptr [ %17, %15 ], [ null, %2 ], [ null, %11 ]
  call void @llvm.lifetime.end.p0(i64 8, ptr nonnull %4) #4
  call void @llvm.lifetime.end.p0(i64 8, ptr nonnull %3) #4
  ret ptr %.0
}